; Function Attrs: mustprogress nounwind uwtable
define dso_local noundef ptr @_ZN4llvm16ValueSymbolTable15createValueNameENS_9StringRefEPNS_5ValueE(ptr noundef nonnull align 8 dereferenceable(32) %0, ptr %1, i64 %2, ptr noundef %3) local_unnamed_addr #0 align 2 {
  %5 = alloca %"struct.std::pair.80", align 8
  %6 = alloca %"class.llvm::SmallString", align 8
  %7 = getelementptr inbounds nuw i8, ptr %0, i64 24
  %8 = load i32, ptr %7, align 8
  %9 = icmp sgt i32 %8, -1
  %10 = zext nneg i32 %8 to i64
  %11 = icmp ugt i64 %2, %10
  %or.cond = select i1 %9, i1 %11, i1 false
  br i1 %or.cond, label %12, label %14

12:                                               ; preds = %4
  %.sroa.speculated = tail call i32 @llvm.umax.i32(i32 %8, i32 1)
  %13 = zext nneg i32 %.sroa.speculated to i64
  %.sroa.speculated.i = tail call i64 @llvm.umin.i64(i64 %2, i64 %13)
  br label %14

14:                                               ; preds = %12, %4
  %.sroa.6.0 = phi i64 [ %.sroa.speculated.i, %12 ], [ %2, %4 ]
  call void @llvm.lifetime.start.p0(i64 24, ptr nonnull %5)
  store ptr %1, ptr %5, align 8
  %.sroa.0.sroa.2.0..sroa_idx = getelementptr inbounds nuw i8, ptr %5, i64 8
  store i64 %.sroa.6.0, ptr %.sroa.0.sroa.2.0..sroa_idx, align 8
  %.sroa.2.0..sroa_idx4 = getelementptr inbounds nuw i8, ptr %5, i64 16
  store ptr %3, ptr %.sroa.2.0..sroa_idx4, align 8
  %15 = tail call noundef i32 @_ZN4llvm13StringMapImpl4hashENS_9StringRefE(ptr %1, i64 %.sroa.6.0) #8
  %16 = call { ptr, i8 } @_ZN4llvm9StringMapIPNS_5ValueENS_15MallocAllocatorEE21try_emplace_with_hashIJS2_EEESt4pairINS_17StringMapIteratorIS2_EEbENS_9StringRefEjDpOT_(ptr noundef nonnull align 8 dereferenceable(24) %0, ptr %1, i64 %.sroa.6.0, i32 noundef %15, ptr noundef nonnull align 8 dereferenceable(8) %.sroa.2.0..sroa_idx4)
  call void @llvm.lifetime.end.p0(i64 24, ptr nonnull %5)
  %.fca.1.extract = extractvalue { ptr, i8 } %16, 1
  %17 = trunc i8 %.fca.1.extract to i1
  br i1 %17, label %18, label %20

18:                                               ; preds = %14
  %.fca.0.extract = extractvalue { ptr, i8 } %16, 0
  %19 = load ptr, ptr %.fca.0.extract, align 8
  br label %_ZN4llvm11SmallStringILj256EED2Ev.exit

20:                                               ; preds = %14
  %21 = getelementptr inbounds i8, ptr %1, i64 %.sroa.6.0
  %22 = getelementptr inbounds nuw i8, ptr %6, i64 24
  call void @_ZN4llvm15SmallVectorBaseImEC2EPvm(ptr noundef nonnull align 8 dereferenceable(280) %6, ptr noundef nonnull %22, i64 noundef 256) #8
  call void @_ZN4llvm15SmallVectorImplIcE6appendIPKcvEEvT_S5_(ptr noundef nonnull align 8 dereferenceable(280) %6, ptr noundef %1, ptr noundef %21)
  %23 = call noundef ptr @_ZN4llvm16ValueSymbolTable14makeUniqueNameEPNS_5ValueERNS_11SmallStringILj256EEE(ptr noundef nonnull align 8 dereferenceable(32) %0, ptr noundef %3, ptr noundef nonnull align 8 dereferenceable(280) %6)
  %24 = call noundef i64 @_ZNK4llvm15SmallVectorBaseImE4sizeEv(ptr noundef nonnull align 8 dereferenceable(280) %6) #8
  %25 = load ptr, ptr %6, align 8
  %26 = icmp eq ptr %25, %22
  br i1 %26, label %_ZN4llvm11SmallStringILj256EED2Ev.exit, label %27

27:                                               ; preds = %20
  call void @free(ptr noundef %25) #8
  br label %_ZN4llvm11SmallStringILj256EED2Ev.exit

_ZN4llvm11SmallStringILj256EED2Ev.exit:           ; preds = %27, %20, %18
  %.0 = phi ptr [ %19, %18 ], [ %23, %20 ], [ %23, %27 ]
  ret ptr %.0
}